target datalayout = "e-m:e-p270:32:32-p271:32:32-p272:64:64-i64:64-i128:128-f80:128-n8:16:32:64-S128"
target triple = "x86_64-pc-linux-gnu"

; Function Attrs: nounwind uwtable
define internal void @unpremultiply16(ptr noundef %0, ptr noundef %1, ptr noundef %2, i64 noundef %3, i64 noundef %4, i64 noundef %5, i32 noundef %6, i32 noundef %7, i32 noundef %8, i32 noundef %9, i32 noundef %10) #1 {
  %12 = alloca ptr, align 8
  %13 = alloca ptr, align 8
  %14 = alloca ptr, align 8
  %15 = alloca i64, align 8
  %16 = alloca i64, align 8
  %17 = alloca i64, align 8
  %18 = alloca i32, align 4
  %19 = alloca i32, align 4
  %20 = alloca i32, align 4
  %21 = alloca i32, align 4
  %22 = alloca i32, align 4
  %23 = alloca ptr, align 8
  %24 = alloca ptr, align 8
  %25 = alloca ptr, align 8
  %26 = alloca i32, align 4
  %27 = alloca i32, align 4
  store ptr %0, ptr %12, align 8, !tbaa !91
  store ptr %1, ptr %13, align 8, !tbaa !91
  store ptr %2, ptr %14, align 8, !tbaa !91
  store i64 %3, ptr %15, align 8, !tbaa !50
  store i64 %4, ptr %16, align 8, !tbaa !50
  store i64 %5, ptr %17, align 8, !tbaa !50
  store i32 %6, ptr %18, align 4, !tbaa !37
  store i32 %7, ptr %19, align 4, !tbaa !37
  store i32 %8, ptr %20, align 4, !tbaa !37
  store i32 %9, ptr %21, align 4, !tbaa !37
  store i32 %10, ptr %22, align 4, !tbaa !37
  call void @llvm.lifetime.start.p0(i64 8, ptr %23) #11
  %28 = load ptr, ptr %12, align 8, !tbaa !91
  store ptr %28, ptr %23, align 8, !tbaa !99
  call void @llvm.lifetime.start.p0(i64 8, ptr %24) #11
  %29 = load ptr, ptr %13, align 8, !tbaa !91
  store ptr %29, ptr %24, align 8, !tbaa !99
  call void @llvm.lifetime.start.p0(i64 8, ptr %25) #11
  %30 = load ptr, ptr %14, align 8, !tbaa !91
  store ptr %30, ptr %25, align 8, !tbaa !99
  call void @llvm.lifetime.start.p0(i64 4, ptr %26) #11
  call void @llvm.lifetime.start.p0(i64 4, ptr %27) #11
  store i32 0, ptr %27, align 4, !tbaa !37
  br label %31

31:                                               ; preds = %127, %11
  %32 = load i32, ptr %27, align 4, !tbaa !37
  %33 = load i32, ptr %19, align 4, !tbaa !37
  %34 = icmp slt i32 %32, %33
  br i1 %34, label %35, label %130

35:                                               ; preds = %31
  store i32 0, ptr %26, align 4, !tbaa !37
  br label %36

36:                                               ; preds = %111, %35
  %37 = load i32, ptr %26, align 4, !tbaa !37
  %38 = load i32, ptr %18, align 4, !tbaa !37
  %39 = icmp slt i32 %37, %38
  br i1 %39, label %40, label %114

40:                                               ; preds = %36
  %41 = load ptr, ptr %24, align 8, !tbaa !99
  %42 = load i32, ptr %26, align 4, !tbaa !37
  %43 = sext i32 %42 to i64
  %44 = getelementptr inbounds i16, ptr %41, i64 %43
  %45 = load i16, ptr %44, align 2, !tbaa !101
  %46 = zext i16 %45 to i32
  %47 = icmp sgt i32 %46, 0
  br i1 %47, label %48, label %100

48:                                               ; preds = %40
  %49 = load ptr, ptr %24, align 8, !tbaa !99
  %50 = load i32, ptr %26, align 4, !tbaa !37
  %51 = sext i32 %50 to i64
  %52 = getelementptr inbounds i16, ptr %49, i64 %51
  %53 = load i16, ptr %52, align 2, !tbaa !101
  %54 = zext i16 %53 to i32
  %55 = load i32, ptr %21, align 4, !tbaa !37
  %56 = icmp slt i32 %54, %55
  br i1 %56, label %57, label %100

57:                                               ; preds = %48
  %58 = load ptr, ptr %23, align 8, !tbaa !99
  %59 = load i32, ptr %26, align 4, !tbaa !37
  %60 = sext i32 %59 to i64
  %61 = getelementptr inbounds i16, ptr %58, i64 %60
  %62 = load i16, ptr %61, align 2, !tbaa !101
  %63 = zext i16 %62 to i32
  %64 = load i32, ptr %21, align 4, !tbaa !37
  %65 = mul i32 %63, %64
  %66 = load ptr, ptr %24, align 8, !tbaa !99
  %67 = load i32, ptr %26, align 4, !tbaa !37
  %68 = sext i32 %67 to i64
  %69 = getelementptr inbounds i16, ptr %66, i64 %68
  %70 = load i16, ptr %69, align 2, !tbaa !101
  %71 = zext i16 %70 to i32
  %72 = udiv i32 %65, %71
  %73 = load i32, ptr %21, align 4, !tbaa !37
  %74 = icmp ugt i32 %72, %73
  br i1 %74, label %75, label %77

75:                                               ; preds = %57
  %76 = load i32, ptr %21, align 4, !tbaa !37
  br label %93

77:                                               ; preds = %57
  %78 = load ptr, ptr %23, align 8, !tbaa !99
  %79 = load i32, ptr %26, align 4, !tbaa !37
  %80 = sext i32 %79 to i64
  %81 = getelementptr inbounds i16, ptr %78, i64 %80
  %82 = load i16, ptr %81, align 2, !tbaa !101
  %83 = zext i16 %82 to i32
  %84 = load i32, ptr %21, align 4, !tbaa !37
  %85 = mul i32 %83, %84
  %86 = load ptr, ptr %24, align 8, !tbaa !99
  %87 = load i32, ptr %26, align 4, !tbaa !37
  %88 = sext i32 %87 to i64
  %89 = getelementptr inbounds i16, ptr %86, i64 %88
  %90 = load i16, ptr %89, align 2, !tbaa !101
  %91 = zext i16 %90 to i32
  %92 = udiv i32 %85, %91
  br label %93

93:                                               ; preds = %77, %75
  %94 = phi i32 [ %76, %75 ], [ %92, %77 ]
  %95 = trunc i32 %94 to i16
  %96 = load ptr, ptr %25, align 8, !tbaa !99
  %97 = load i32, ptr %26, align 4, !tbaa !37
  %98 = sext i32 %97 to i64
  %99 = getelementptr inbounds i16, ptr %96, i64 %98
  store i16 %95, ptr %99, align 2, !tbaa !101
  br label %110

100:                                              ; preds = %48, %40
  %101 = load ptr, ptr %23, align 8, !tbaa !99
  %102 = load i32, ptr %26, align 4, !tbaa !37
  %103 = sext i32 %102 to i64
  %104 = getelementptr inbounds i16, ptr %101, i64 %103
  %105 = load i16, ptr %104, align 2, !tbaa !101
  %106 = load ptr, ptr %25, align 8, !tbaa !99
  %107 = load i32, ptr %26, align 4, !tbaa !37
  %108 = sext i32 %107 to i64
  %109 = getelementptr inbounds i16, ptr %106, i64 %108
  store i16 %105, ptr %109, align 2, !tbaa !101
  br label %110

110:                                              ; preds = %100, %93
  br label %111

111:                                              ; preds = %110
  %112 = load i32, ptr %26, align 4, !tbaa !37
  %113 = add nsw i32 %112, 1
  store i32 %113, ptr %26, align 4, !tbaa !37
  br label %36, !llvm.loop !103

114:                                              ; preds = %36
  %115 = load i64, ptr %17, align 8, !tbaa !50
  %116 = sdiv i64 %115, 2
  %117 = load ptr, ptr %25, align 8, !tbaa !99
  %118 = getelementptr inbounds i16, ptr %117, i64 %116
  store ptr %118, ptr %25, align 8, !tbaa !99
  %119 = load i64, ptr %15, align 8, !tbaa !50
  %120 = sdiv i64 %119, 2
  %121 = load ptr, ptr %23, align 8, !tbaa !99
  %122 = getelementptr inbounds i16, ptr %121, i64 %120
  store ptr %122, ptr %23, align 8, !tbaa !99
  %123 = load i64, ptr %16, align 8, !tbaa !50
  %124 = sdiv i64 %123, 2
  %125 = load ptr, ptr %24, align 8, !tbaa !99
  %126 = getelementptr inbounds i16, ptr %125, i64 %124
  store ptr %126, ptr %24, align 8, !tbaa !99
  br label %127

127:                                              ; preds = %114
  %128 = load i32, ptr %27, align 4, !tbaa !37
  %129 = add nsw i32 %128, 1
  store i32 %129, ptr %27, align 4, !tbaa !37
  br label %31, !llvm.loop !104

130:                                              ; preds = %31
  call void @llvm.lifetime.end.p0(i64 4, ptr %27) #11
  call void @llvm.lifetime.end.p0(i64 4, ptr %26) #11
  call void @llvm.lifetime.end.p0(i64 8, ptr %25) #11
  call void @llvm.lifetime.end.p0(i64 8, ptr %24) #11
  call void @llvm.lifetime.end.p0(i64 8, ptr %23) #11
  ret void
}