; Function Attrs: nofree norecurse nosync nounwind memory(argmem: readwrite) uwtable
define internal void @unpremultiply16(ptr noundef readonly captures(none) %0, ptr noundef readonly captures(none) %1, ptr noundef writeonly captures(none) %2, i64 noundef %3, i64 noundef %4, i64 noundef %5, i32 noundef %6, i32 noundef %7, i32 %8, i32 noundef %9, i32 %10) #5 {
  %12 = icmp sgt i32 %7, 0
  br i1 %12, label %.preheader.lr.ph, label %._crit_edge49

.preheader.lr.ph:                                 ; preds = %11
  %13 = icmp sgt i32 %6, 0
  %14 = sdiv i64 %5, 2
  %15 = sdiv i64 %3, 2
  %16 = sdiv i64 %4, 2
  br i1 %13, label %.preheader.us.preheader, label %._crit_edge49

.preheader.us.preheader:                          ; preds = %.preheader.lr.ph
  %wide.trip.count = zext nneg i32 %6 to i64
  br label %.preheader.us

.preheader.us:                                    ; preds = %.preheader.us.preheader, %._crit_edge.us
  %.048.us = phi i32 [ %34, %._crit_edge.us ], [ 0, %.preheader.us.preheader ]
  %.03847.us = phi ptr [ %31, %._crit_edge.us ], [ %2, %.preheader.us.preheader ]
  %.03946.us = phi ptr [ %33, %._crit_edge.us ], [ %1, %.preheader.us.preheader ]
  %.04045.us = phi ptr [ %32, %._crit_edge.us ], [ %0, %.preheader.us.preheader ]
  br label %17

17:                                               ; preds = %.preheader.us, %29
  %indvars.iv = phi i64 [ 0, %.preheader.us ], [ %indvars.iv.next, %29 ]
  %18 = getelementptr inbounds nuw i16, ptr %.03946.us, i64 %indvars.iv
  %19 = load i16, ptr %18, align 2, !tbaa !85
  %20 = zext i16 %19 to i32
  %.not.us = icmp ne i16 %19, 0
  %21 = icmp sgt i32 %9, %20
  %or.cond.us = and i1 %.not.us, %21
  %22 = getelementptr inbounds nuw i16, ptr %.04045.us, i64 %indvars.iv
  %23 = load i16, ptr %22, align 2, !tbaa !85
  br i1 %or.cond.us, label %24, label %29

24:                                               ; preds = %17
  %25 = zext i16 %23 to i32
  %26 = mul i32 %9, %25
  %27 = udiv i32 %26, %20
  %..us = tail call i32 @llvm.umin.i32(i32 %27, i32 %9)
  %28 = trunc i32 %..us to i16
  br label %29

29:                                               ; preds = %17, %24
  %.sink = phi i16 [ %28, %24 ], [ %23, %17 ]
  %30 = getelementptr inbounds nuw i16, ptr %.03847.us, i64 %indvars.iv
  store i16 %.sink, ptr %30, align 2, !tbaa !85
  %indvars.iv.next = add nuw nsw i64 %indvars.iv, 1
  %exitcond.not = icmp eq i64 %indvars.iv.next, %wide.trip.count
  br i1 %exitcond.not, label %._crit_edge.us, label %17, !llvm.loop !87

._crit_edge.us:                                   ; preds = %29
  %31 = getelementptr inbounds i16, ptr %.03847.us, i64 %14
  %32 = getelementptr inbounds i16, ptr %.04045.us, i64 %15
  %33 = getelementptr inbounds i16, ptr %.03946.us, i64 %16
  %34 = add nuw nsw i32 %.048.us, 1
  %exitcond52.not = icmp eq i32 %34, %7
  br i1 %exitcond52.not, label %._crit_edge49, label %.preheader.us, !llvm.loop !88

._crit_edge49:                                    ; preds = %._crit_edge.us, %.preheader.lr.ph, %11
  ret void
}